; Function Attrs: mustprogress nounwind uwtable
define hidden void @_ZN24ShenandoahEvacOOMCounter11set_oom_bitEb(ptr noundef nonnull align 4 dereferenceable(64) %0, i1 noundef zeroext %1) local_unnamed_addr #1 align 2 {
  %3 = load volatile i32, ptr %0, align 4
  tail call void asm sideeffect "", "~{memory},~{dirflag},~{fpsr},~{flags}"() #8, !srcloc !8
  br i1 %1, label %.split.us, label %.split

.split.us:                                        ; preds = %2, %.split.us
  %.0.us = phi i32 [ %6, %.split.us ], [ %3, %2 ]
  %4 = add i32 %.0.us, 2147483647
  %5 = or i32 %4, -2147483648
  %6 = tail call noundef i32 asm sideeffect "lock cmpxchgl $1,($3)", "={ax},r,{ax},r,~{cc},~{memory},~{dirflag},~{fpsr},~{flags}"(i32 %5, i32 %.0.us, ptr nonnull %0) #8, !srcloc !9
  %7 = icmp eq i32 %6, %.0.us
  br i1 %7, label %.split10.us, label %.split.us, !llvm.loop !10

.split:                                           ; preds = %2, %.split
  %.0 = phi i32 [ %9, %.split ], [ %3, %2 ]
  %8 = or i32 %.0, -2147483648
  %9 = tail call noundef i32 asm sideeffect "lock cmpxchgl $1,($3)", "={ax},r,{ax},r,~{cc},~{memory},~{dirflag},~{fpsr},~{flags}"(i32 %8, i32 %.0, ptr nonnull %0) #8, !srcloc !9
  %10 = icmp eq i32 %9, %.0
  br i1 %10, label %.split10.us, label %.split, !llvm.loop !10

.split10.us:                                      ; preds = %.split, %.split.us
  ret void
}